; Function Attrs: nounwind uwtable
define ptr @l_Lean_SMap_instForInProd___rarg(ptr noundef %0, ptr noundef %1, ptr readnone captures(none) %2, ptr readnone captures(none) %3, ptr noundef %4, ptr noundef %5, ptr noundef %6, ptr noundef %7) #0 {
  %9 = getelementptr inbounds nuw i8, ptr %4, i64 16
  %10 = load ptr, ptr %9, align 8, !tbaa !4
  %11 = ptrtoint ptr %10 to i64
  %12 = and i64 %11, 1
  %.not = icmp eq i64 %12, 0
  br i1 %.not, label %13, label %lean_inc.exit24

13:                                               ; preds = %8
  %.val.i = load i32, ptr %10, align 4, !tbaa !10
  %14 = icmp sgt i32 %.val.i, 0
  br i1 %14, label %15, label %17, !prof !15

15:                                               ; preds = %13
  %16 = add nuw i32 %.val.i, 1
  store i32 %16, ptr %10, align 4, !tbaa !10
  br label %19

17:                                               ; preds = %13
  %.not.i = icmp eq i32 %.val.i, 0
  br i1 %.not.i, label %lean_inc.exit24, label %18

18:                                               ; preds = %17
  tail call void @lean_inc_ref_cold(ptr noundef nonnull %10) #3
  %.val.i26.pr = load i32, ptr %10, align 4, !tbaa !10
  br label %19

19:                                               ; preds = %18, %15
  %.val.i26 = phi i32 [ %.val.i26.pr, %18 ], [ %16, %15 ]
  %20 = icmp sgt i32 %.val.i26, 0
  br i1 %20, label %21, label %23, !prof !17

21:                                               ; preds = %19
  %22 = add nuw i32 %.val.i26, 1
  store i32 %22, ptr %10, align 4, !tbaa !10
  br label %lean_inc.exit24

23:                                               ; preds = %19
  %.not.i27 = icmp eq i32 %.val.i26, 0
  br i1 %.not.i27, label %lean_inc.exit24, label %24

24:                                               ; preds = %23
  tail call void @lean_inc_ref_cold(ptr noundef nonnull %10) #3
  br label %lean_inc.exit24

lean_inc.exit24:                                  ; preds = %17, %24, %23, %21, %8
  %25 = ptrtoint ptr %4 to i64
  %26 = and i64 %25, 1
  %.not41 = icmp eq i64 %26, 0
  br i1 %.not41, label %27, label %lean_inc.exit23

27:                                               ; preds = %lean_inc.exit24
  %.val.i29 = load i32, ptr %4, align 4, !tbaa !10
  %28 = icmp sgt i32 %.val.i29, 0
  br i1 %28, label %29, label %31, !prof !15

29:                                               ; preds = %27
  %30 = add nuw i32 %.val.i29, 1
  store i32 %30, ptr %4, align 4, !tbaa !10
  br label %lean_inc.exit23

31:                                               ; preds = %27
  %.not.i30 = icmp eq i32 %.val.i29, 0
  br i1 %.not.i30, label %lean_inc.exit23, label %32

32:                                               ; preds = %31
  tail call void @lean_inc_ref_cold(ptr noundef nonnull %4) #3
  br label %lean_inc.exit23

lean_inc.exit23:                                  ; preds = %32, %31, %29, %lean_inc.exit24
  tail call void @lean_inc_heartbeat() #3
  %33 = tail call noalias ptr @mi_malloc_small(i64 noundef 48) #3
  %34 = icmp eq ptr %33, null
  br i1 %34, label %35, label %lean_alloc_closure.exit

35:                                               ; preds = %lean_inc.exit23
  tail call void @lean_internal_panic_out_of_memory() #4
  unreachable

lean_alloc_closure.exit:                          ; preds = %lean_inc.exit23
  %36 = getelementptr inbounds nuw i8, ptr %33, i64 4
  store i32 1, ptr %33, align 4, !tbaa !10
  store i32 -184549328, ptr %36, align 4
  %37 = getelementptr inbounds nuw i8, ptr %33, i64 8
  store ptr @l_Lean_SMap_instForInProd___rarg___lambda__2, ptr %37, align 8, !tbaa !4
  %38 = getelementptr inbounds nuw i8, ptr %33, i64 16
  store i16 6, ptr %38, align 8, !tbaa !13
  %39 = getelementptr inbounds nuw i8, ptr %33, i64 18
  store i16 3, ptr %39, align 2, !tbaa !13
  %40 = getelementptr inbounds nuw i8, ptr %33, i64 24
  store ptr %7, ptr %40, align 8, !tbaa !4
  %41 = getelementptr inbounds nuw i8, ptr %33, i64 32
  store ptr %4, ptr %41, align 8, !tbaa !4
  %42 = getelementptr inbounds nuw i8, ptr %33, i64 40
  store ptr %10, ptr %42, align 8, !tbaa !4
  br i1 %.not41, label %43, label %lean_inc.exit

43:                                               ; preds = %lean_alloc_closure.exit
  %.val.i32 = load i32, ptr %4, align 4, !tbaa !10
  %44 = icmp sgt i32 %.val.i32, 0
  br i1 %44, label %45, label %47, !prof !15

45:                                               ; preds = %43
  %46 = add nuw i32 %.val.i32, 1
  store i32 %46, ptr %4, align 4, !tbaa !10
  br label %lean_inc.exit

47:                                               ; preds = %43
  %.not.i33 = icmp eq i32 %.val.i32, 0
  br i1 %.not.i33, label %lean_inc.exit, label %48

48:                                               ; preds = %47
  tail call void @lean_inc_ref_cold(ptr noundef nonnull %4) #3
  br label %lean_inc.exit

lean_inc.exit:                                    ; preds = %48, %47, %45, %lean_alloc_closure.exit
  %49 = tail call ptr @l_Lean_SMap_forM___at_Lean_SMap_instForInProd___spec__1___rarg(ptr noundef %0, ptr noundef %1, ptr nonnull poison, ptr nonnull poison, ptr noundef nonnull %4, ptr noundef %5, ptr noundef nonnull %33, ptr noundef %6)
  tail call void @lean_inc_heartbeat() #3
  %50 = tail call noalias ptr @mi_malloc_small(i64 noundef 32) #3
  %51 = icmp eq ptr %50, null
  br i1 %51, label %52, label %lean_alloc_closure.exit35

52:                                               ; preds = %lean_inc.exit
  tail call void @lean_internal_panic_out_of_memory() #4
  unreachable

lean_alloc_closure.exit35:                        ; preds = %lean_inc.exit
  %53 = getelementptr inbounds nuw i8, ptr %50, i64 4
  store i32 1, ptr %50, align 4, !tbaa !10
  store i32 -184549344, ptr %53, align 4
  %54 = getelementptr inbounds nuw i8, ptr %50, i64 8
  store ptr @l_Lean_SMap_instForInProd___rarg___lambda__3, ptr %54, align 8, !tbaa !4
  %55 = getelementptr inbounds nuw i8, ptr %50, i64 16
  store i16 2, ptr %55, align 8, !tbaa !13
  %56 = getelementptr inbounds nuw i8, ptr %50, i64 18
  store i16 1, ptr %56, align 2, !tbaa !13
  %57 = getelementptr inbounds nuw i8, ptr %50, i64 24
  store ptr %4, ptr %57, align 8, !tbaa !4
  %58 = tail call ptr @lean_apply_4(ptr noundef %10, ptr noundef nonnull inttoptr (i64 1 to ptr), ptr noundef nonnull inttoptr (i64 1 to ptr), ptr noundef %49, ptr noundef nonnull %50) #3
  ret ptr %58
}